; Function Attrs: mustprogress nofree norecurse nosync nounwind willreturn memory(read, inaccessiblemem: none) uwtable
define hidden noundef float @_ZN19OpenColorIO_v2_5dev7LogUtil15GetLinearOffsetERKSt6vectorIdSaIdEEff(ptr noundef nonnull readonly align 8 captures(none) dereferenceable(24) %0, float noundef %1, float noundef %2) local_unnamed_addr #10 {
  %4 = load ptr, ptr %0, align 8, !tbaa !13
  %5 = getelementptr inbounds nuw i8, ptr %4, i64 32
  %6 = load double, ptr %5, align 8, !tbaa !16
  %7 = fptrunc double %6 to float
  %8 = fneg float %1
  %9 = tail call float @llvm.fmuladd.f32(float %8, float %7, float %2)
  ret float %9
}